(dp1
S'0412041754.mpg'
p2
cnumpy.core.multiarray
_reconstruct
p3
(cnumpy
ndarray
p4
(I0
tS'b'
tRp5
(I1
(I1
tcnumpy
dtype
p6
(S'i4'
I0
I1
tRp7
(I3
S'<'
NNNI-1
I-1
I0
tbI00
S'\x7f\x01\x00\x00'
tbsS'1018010855.mpg'
p8
g3
(g4
(I0
tS'b'
tRp9
(I1
(I0
tg6
(S'f8'
I0
I1
tRp10
(I3
S'<'
NNNI-1
I-1
I0
tbI00
S''
tbsS'0131021527.mpg'
p11
g3
(g4
(I0
tS'b'
tRp12
(I1
(I1
tg7
I00
S'`\x01\x00\x00'
tbsS'1126041310.mpg'
p13
g3
(g4
(I0
tS'b'
tRp14
(I1
(I1
tg7
I00
S'A\x01\x00\x00'
tbsS'0912021930.mpg'
p15
g3
(g4
(I0
tS'b'
tRp16
(I1
(I1
tg7
I00
S'q\x01\x00\x00'
tbsS'0502021556.mpg'
p17
g3
(g4
(I0
tS'b'
tRp18
(I1
(I1
tg7
I00
S'_\x01\x00\x00'
tbsS'0128031625.mpg'
p19
g3
(g4
(I0
tS'b'
tRp20
(I1
(I1
tg7
I00
S'c\x01\x00\x00'
tbsS'1126041319.mpg'
p21
g3
(g4
(I0
tS'b'
tRp22
(I1
(I1
tg7
I00
S'$\x01\x00\x00'
tbsS'0705021647.mpg'
p23
g3
(g4
(I0
tS'b'
tRp24
(I1
(I1
tg7
I00
S'O\x01\x00\x00'
tbsS'0917041137.mpg'
p25
g3
(g4
(I0
tS'b'
tRp26
(I1
(I1
tg7
I00
S'\x8c\x01\x00\x00'
tbsS'0507052242.mpg'
p27
g3
(g4
(I0
tS'b'
tRp28
(I1
(I1
tg7
I00
S'U\x01\x00\x00'
tbsS'0507030921.mpg'
p29
g3
(g4
(I0
tS'b'
tRp30
(I1
(I1
tg7
I00
S'A\x01\x00\x00'
tbsS'0820030513.mpg'
p31
g3
(g4
(I0
tS'b'
tRp32
(I1
(I0
tg10
I00
S''
tbsS'0505032044.mpg'
p33
g3
(g4
(I0
tS'b'
tRp34
(I1
(I1
tg7
I00
S'u\x01\x00\x00'
tbsS'0929011215.mpg'
p35
g3
(g4
(I0
tS'b'
tRp36
(I1
(I0
tg10
I00
S''
tbsS'0913021645.mpg'
p37
g3
(g4
(I0
tS'b'
tRp38
(I1
(I1
tg7
I00
S'P\x01\x00\x00'
tbsS'0412041242.mpg'
p39
g3
(g4
(I0
tS'b'
tRp40
(I1
(I1
tg7
I00
S'n\x01\x00\x00'
tbsS'0618041442.mpg'
p41
g3
(g4
(I0
tS'b'
tRp42
(I1
(I1
tg7
I00
S'B\x01\x00\x00'
tbsS'0909041426.mpg'
p43
g3
(g4
(I0
tS'b'
tRp44
(I1
(I1
tg7
I00
S'B\x01\x00\x00'
tbsS'1109031055.mpg'
p45
g3
(g4
(I0
tS'b'
tRp46
(I1
(I0
tg10
I00
S''
tbsS'0808040917.mpg'
p47
g3
(g4
(I0
tS'b'
tRp48
(I1
(I1
tg7
I00
S'E\x01\x00\x00'
tbsS'0910021659.mpg'
p49
g3
(g4
(I0
tS'b'
tRp50
(I1
(I1
tg7
I00
S'D\x01\x00\x00'
tbsS'0120050935.mpg'
p51
g3
(g4
(I0
tS'b'
tRp52
(I1
(I1
tg7
I00
S'8\x01\x00\x00'
tbsS'0105020054.mpg'
p53
g3
(g4
(I0
tS'b'
tRp54
(I1
(I1
tg7
I00
S'b\x01\x00\x00'
tbsS'1223020844.mpg'
p55
g3
(g4
(I0
tS'b'
tRp56
(I1
(I1
tg7
I00
S'M\x01\x00\x00'
tbsS'0619020812.mpg'
p57
g3
(g4
(I0
tS'b'
tRp58
(I1
(I1
tg7
I00
S'W\x01\x00\x00'
tbsS'0816012039.mpg'
p59
g3
(g4
(I0
tS'b'
tRp60
(I1
(I0
tg10
I00
S''
tbsS'0227021259.mpg'
p61
g3
(g4
(I0
tS'b'
tRp62
(I1
(I1
tg7
I00
S'4\x01\x00\x00'
tbsS'0424031458.mpg'
p63
g3
(g4
(I0
tS'b'
tRp64
(I1
(I1
tg7
I00
S'x\x01\x00\x00'
tbsS'0413041911.mpg'
p65
g3
(g4
(I0
tS'b'
tRp66
(I1
(I1
tg7
I00
S'b\x01\x00\x00'
tbsS'0623021249.mpg'
p67
g3
(g4
(I0
tS'b'
tRp68
(I1
(I1
tg7
I00
S'c\x01\x00\x00'
tbsS'1228031427.mpg'
p69
g3
(g4
(I0
tS'b'
tRp70
(I1
(I1
tg7
I00
S'F\x01\x00\x00'
tbsS'1228021540.mpg'
p71
g3
(g4
(I0
tS'b'
tRp72
(I1
(I1
tg7
I00
S'X\x01\x00\x00'
tbsS'0624021319.mpg'
p73
g3
(g4
(I0
tS'b'
tRp74
(I1
(I1
tg7
I00
S'C\x01\x00\x00'
tbsS'0612021557.mpg'
p75
g3
(g4
(I0
tS'b'
tRp76
(I1
(I1
tg7
I00
S'Y\x01\x00\x00'
tbsS'0914021814.mpg'
p77
g3
(g4
(I0
tS'b'
tRp78
(I1
(I1
tg7
I00
S'\x82\x01\x00\x00'
tbsS'0917022113.mpg'
p79
g3
(g4
(I0
tS'b'
tRp80
(I1
(I1
tg7
I00
S'r\x01\x00\x00'
tbsS'0909011954.mpg'
p81
g3
(g4
(I0
tS'b'
tRp82
(I1
(I1
tg7
I00
S'p\x01\x00\x00'
tbsS'1201021242.mpg'
p83
g3
(g4
(I0
tS'b'
tRp84
(I1
(I1
tg7
I00
S'e\x01\x00\x00'
tbsS'0901021125.mpg'
p85
g3
(g4
(I0
tS'b'
tRp86
(I1
(I1
tg7
I00
S'u\x01\x00\x00'
tbsS'0217041706.mpg'
p87
g3
(g4
(I0
tS'b'
tRp88
(I1
(I1
tg7
I00
S'\x81\x01\x00\x00'
tbsS'1101040712.mpg'
p89
g3
(g4
(I0
tS'b'
tRp90
(I1
(I1
tg7
I00
S'\xc8\x00\x00\x00'
tbsS'1220041039_with1020.mpg'
p91
g3
(g4
(I0
tS'b'
tRp92
(I1
(I3
tg7
I00
S';\x01\x00\x00\xba\x02\x00\x003\x04\x00\x00'
tbsS'1011021701.mpg'
p93
g3
(g4
(I0
tS'b'
tRp94
(I1
(I1
tg7
I00
S'|\x01\x00\x00'
tbsS'0505041519.mpg'
p95
g3
(g4
(I0
tS'b'
tRp96
(I1
(I1
tg7
I00
S'9\x01\x00\x00'
tbsS'1208020207.mpg'
p97
g3
(g4
(I0
tS'b'
tRp98
(I1
(I1
tg7
I00
S'R\x01\x00\x00'
tbsS'0615031222.mpg'
p99
g3
(g4
(I0
tS'b'
tRp100
(I1
(I1
tg7
I00
S'E\x01\x00\x00'
tbsS'0218041348.mpg'
p101
g3
(g4
(I0
tS'b'
tRp102
(I1
(I1
tg7
I00
S'd\x01\x00\x00'
tbsS'1207021134.mpg'
p103
g3
(g4
(I0
tS'b'
tRp104
(I1
(I1
tg7
I00
S'a\x01\x00\x00'
tbsS'1106041243.mpg'
p105
g3
(g4
(I0
tS'b'
tRp106
(I1
(I1
tg7
I00
S'%\x01\x00\x00'
tbsS'0918011145.mpg'
p107
g3
(g4
(I0
tS'b'
tRp108
(I1
(I1
tg7
I00
S'~\x01\x00\x00'
tbsS'0405040941.mpg'
p109
g3
(g4
(I0
tS'b'
tRp110
(I1
(I1
tg7
I00
S'=\x01\x00\x00'
tbsS'0820011143.mpg'
p111
g3
(g4
(I0
tS'b'
tRp112
(I1
(I1
tg7
I00
S'N\x01\x00\x00'
tbsS'1001011634.mpg'
p113
g3
(g4
(I0
tS'b'
tRp114
(I1
(I0
tg10
I00
S''
tbsS'0901041905.mpg'
p115
g3
(g4
(I0
tS'b'
tRp116
(I1
(I1
tg7
I00
S'K\x01\x00\x00'
tbsS'0316041703.mpg'
p117
g3
(g4
(I0
tS'b'
tRp118
(I1
(I1
tg7
I00
S'`\x01\x00\x00'
tbsS'0930020936.mpg'
p119
g3
(g4
(I0
tS'b'
tRp120
(I1
(I1
tg7
I00
S'd\x01\x00\x00'
tbsS'0906011752.mpg'
p121
g3
(g4
(I0
tS'b'
tRp122
(I1
(I0
tg10
I00
S''
tbsS'0712050835.mpg'
p123
g3
(g4
(I0
tS'b'
tRp124
(I1
(I1
tg7
I00
S'N\x01\x00\x00'
tbsS'1203010843.mpg'
p125
g3
(g4
(I0
tS'b'
tRp126
(I1
(I0
tg10
I00
S''
tbsS'0306022035.mpg'
p127
g3
(g4
(I0
tS'b'
tRp128
(I1
(I1
tg7
I00
S'L\x01\x00\x00'
tbsS'0330042106.mpg'
p129
g3
(g4
(I0
tS'b'
tRp130
(I1
(I1
tg7
I00
S'^\x01\x00\x00'
tbsS'0918041458.mpg'
p131
g3
(g4
(I0
tS'b'
tRp132
(I1
(I1
tg7
I00
S'\xf4\x00\x00\x00'
tbsS'0608031735.mpg'
p133
g3
(g4
(I0
tS'b'
tRp134
(I1
(I0
tg10
I00
S''
tbsS'1117021605.mpg'
p135
g3
(g4
(I0
tS'b'
tRp136
(I1
(I1
tg7
I00
S'S\x01\x00\x00'
tbsS'0118051321.mpg'
p137
g3
(g4
(I0
tS'b'
tRp138
(I1
(I1
tg7
I00
S'@\x01\x00\x00'
tbsS'1115022045.mpg'
p139
g3
(g4
(I0
tS'b'
tRp140
(I1
(I1
tg7
I00
S'e\x01\x00\x00'
tbsS'1106041113.mpg'
p141
g3
(g4
(I0
tS'b'
tRp142
(I1
(I1
tg7
I00
S'\x12\x01\x00\x00'
tbsS'1215020536.mpg'
p143
g3
(g4
(I0
tS'b'
tRp144
(I1
(I1
tg7
I00
S'R\x01\x00\x00'
tbsS'0415030643.mpg'
p145
g3
(g4
(I0
tS'b'
tRp146
(I1
(I1
tg7
I00
S'j\x01\x00\x00'
tbsS'0604031227.mpg'
p147
g3
(g4
(I0
tS'b'
tRp148
(I1
(I0
tg10
I00
S''
tbsS'0205030857.mpg'
p149
g3
(g4
(I0
tS'b'
tRp150
(I1
(I1
tg7
I00
S'@\x01\x00\x00'
tbsS'1202021534.mpg'
p151
g3
(g4
(I0
tS'b'
tRp152
(I1
(I1
tg7
I00
S'a\x01\x00\x00'
tbsS'1014011427.mpg'
p153
g3
(g4
(I0
tS'b'
tRp154
(I1
(I1
tg7
I00
S'E\x01\x00\x00'
tbsS'0706041607.mpg'
p155
g3
(g4
(I0
tS'b'
tRp156
(I1
(I1
tg7
I00
S'D\x01\x00\x00'
tbsS'0530021303.mpg'
p157
g3
(g4
(I0
tS'b'
tRp158
(I1
(I1
tg7
I00
S'b\x01\x00\x00'
tbsS'0510031312.mpg'
p159
g3
(g4
(I0
tS'b'
tRp160
(I1
(I1
tg7
I00
S'o\x01\x00\x00'
tbsS'0505052011.mpg'
p161
g3
(g4
(I0
tS'b'
tRp162
(I1
(I1
tg7
I00
S'U\x01\x00\x00'
tbsS'0406021348.mpg'
p163
g3
(g4
(I0
tS'b'
tRp164
(I1
(I1
tg7
I00
S'V\x01\x00\x00'
tbsS'0625041335.mpg'
p165
g3
(g4
(I0
tS'b'
tRp166
(I1
(I1
tg7
I00
S'0\x01\x00\x00'
tbsS'0216020001.mpg'
p167
g3
(g4
(I0
tS'b'
tRp168
(I1
(I1
tg7
I00
S']\x01\x00\x00'
tbsS'0829031543.mpg'
p169
g3
(g4
(I0
tS'b'
tRp170
(I1
(I0
tg10
I00
S''
tbsS'0928021433.mpg'
p171
g3
(g4
(I0
tS'b'
tRp172
(I1
(I1
tg7
I00
S'R\x01\x00\x00'
tbsS'1116021137.mpg'
p173
g3
(g4
(I0
tS'b'
tRp174
(I1
(I1
tg7
I00
S'd\x01\x00\x00'
tbsS'0818021757.mpg'
p175
g3
(g4
(I0
tS'b'
tRp176
(I1
(I1
tg7
I00
S'C\x01\x00\x00'
tbsS'0611041724.mpg'
p177
g3
(g4
(I0
tS'b'
tRp178
(I1
(I1
tg7
I00
S'E\x01\x00\x00'
tbsS'0512041840.mpg'
p179
g3
(g4
(I0
tS'b'
tRp180
(I1
(I1
tg7
I00
S'8\x01\x00\x00'
tbsS'0926011727.mpg'
p181
g3
(g4
(I0
tS'b'
tRp182
(I1
(I0
tg10
I00
S''
tbsS'1125040051.mpg'
p183
g3
(g4
(I0
tS'b'
tRp184
(I1
(I1
tg7
I00
S'C\x01\x00\x00'
tbsS'0329031139.mpg'
p185
g3
(g4
(I0
tS'b'
tRp186
(I1
(I1
tg7
I00
S'k\x01\x00\x00'
tbsS'0227021255.mpg'
p187
g3
(g4
(I0
tS'b'
tRp188
(I1
(I1
tg7
I00
S'X\x01\x00\x00'
tbsS'1019012222.mpg'
p189
g3
(g4
(I0
tS'b'
tRp190
(I1
(I1
tg7
I00
S'h\x01\x00\x00'
tbsS'0905041419.mpg'
p191
g3
(g4
(I0
tS'b'
tRp192
(I1
(I1
tg7
I00
S'T\x01\x00\x00'
tbsS'0809030655.mpg'
p193
g3
(g4
(I0
tS'b'
tRp194
(I1
(I0
tg10
I00
S''
tbsS'0825021250.mpg'
p195
g3
(g4
(I0
tS'b'
tRp196
(I1
(I1
tg7
I00
S'5\x01\x00\x00'
tbsS'1006021823.mpg'
p197
g3
(g4
(I0
tS'b'
tRp198
(I1
(I1
tg7
I00
S'\x1a\x01\x00\x00'
tbsS'1116012027.mpg'
p199
g3
(g4
(I0
tS'b'
tRp200
(I1
(I0
tg10
I00
S''
tbsS'0226021243.mpg'
p201
g3
(g4
(I0
tS'b'
tRp202
(I1
(I1
tg7
I00
S'`\x01\x00\x00'
tbsS'0902020009.mpg'
p203
g3
(g4
(I0
tS'b'
tRp204
(I1
(I1
tg7
I00
S'F\x01\x00\x00'
tbsS'1105041326.mpg'
p205
g3
(g4
(I0
tS'b'
tRp206
(I1
(I1
tg7
I00
S'C\x01\x00\x00'
tbsS'0809031317.mpg'
p207
g3
(g4
(I0
tS'b'
tRp208
(I1
(I0
tg10
I00
S''
tbsS'0716031904.mpg'
p209
g3
(g4
(I0
tS'b'
tRp210
(I1
(I1
tg7
I00
S'L\x01\x00\x00'
tbsS'0706021927.mpg'
p211
g3
(g4
(I0
tS'b'
tRp212
(I1
(I1
tg7
I00
S'j\x01\x00\x00'
tbsS'0310031225.mpg'
p213
g3
(g4
(I0
tS'b'
tRp214
(I1
(I1
tg7
I00
S'X\x01\x00\x00'
tbsS'1220041020.mpg'
p215
g3
(g4
(I0
tS'b'
tRp216
(I1
(I1
tg7
I00
S'K\x01\x00\x00'
tbsS'1203010825.mpg'
p217
g3
(g4
(I0
tS'b'
tRp218
(I1
(I1
tg7
I00
S'\x1e\x01\x00\x00'
tbsS'1228041332.mpg'
p219
g3
(g4
(I0
tS'b'
tRp220
(I1
(I1
tg7
I00
S'N\x01\x00\x00'
tbsS'0614040946.mpg'
p221
g3
(g4
(I0
tS'b'
tRp222
(I1
(I1
tg7
I00
S'9\x01\x00\x00'
tbsS'0907032205.mpg'
p223
g3
(g4
(I0
tS'b'
tRp224
(I1
(I0
tg10
I00
S''
tbsS'1212020742.mpg'
p225
g3
(g4
(I0
tS'b'
tRp226
(I1
(I1
tg7
I00
S'a\x01\x00\x00'
tbsS'0806050937.mpg'
p227
g3
(g4
(I0
tS'b'
tRp228
(I1
(I1
tg7
I00
S':\x01\x00\x00'
tbsS'1108040753.mpg'
p229
g3
(g4
(I0
tS'b'
tRp230
(I1
(I1
tg7
I00
S'=\x01\x00\x00'
tbsS'1113011520.mpg'
p231
g3
(g4
(I0
tS'b'
tRp232
(I1
(I1
tg7
I00
S'w\x01\x00\x00'
tbsS'1101040802.mpg'
p233
g3
(g4
(I0
tS'b'
tRp234
(I1
(I1
tg7
I00
S'\x18\x01\x00\x00'
tbsS'0419041359.mpg'
p235
g3
(g4
(I0
tS'b'
tRp236
(I1
(I1
tg7
I00
S'K\x01\x00\x00'
tbsS'0726031455.mpg'
p237
g3
(g4
(I0
tS'b'
tRp238
(I1
(I1
tg7
I00
S't\x01\x00\x00'
tbs.