(dp1
S'1027021520.mpg'
p2
cnumpy.core.multiarray
_reconstruct
p3
(cnumpy
ndarray
p4
(I0
tS'b'
tRp5
(I1
(I1
tcnumpy
dtype
p6
(S'i4'
I0
I1
tRp7
(I3
S'<'
NNNI-1
I-1
I0
tbI00
S'{\x01\x00\x00'
tbsS'0718032251.mpg'
p8
g3
(g4
(I0
tS'b'
tRp9
(I1
(I1
tg7
I00
S'Y\x01\x00\x00'
tbsS'1230011901.mpg'
p10
g3
(g4
(I0
tS'b'
tRp11
(I1
(I1
tg7
I00
S'I\x01\x00\x00'
tbsS'0916040804.mpg'
p12
g3
(g4
(I0
tS'b'
tRp13
(I1
(I1
tg7
I00
S'5\x01\x00\x00'
tbsS'0916031508.mpg'
p14
g3
(g4
(I0
tS'b'
tRp15
(I1
(I0
tg6
(S'f8'
I0
I1
tRp16
(I3
S'<'
NNNI-1
I-1
I0
tbI00
S''
tbsS'0329021231.mpg'
p17
g3
(g4
(I0
tS'b'
tRp18
(I1
(I1
tg7
I00
S'X\x01\x00\x00'
tbsS'1116010101.mpg'
p19
g3
(g4
(I0
tS'b'
tRp20
(I1
(I0
tg16
I00
S''
tbsS'0410052239.mpg'
p21
g3
(g4
(I0
tS'b'
tRp22
(I1
(I1
tg7
I00
S'\\\x01\x00\x00'
tbsS'1113041529.mpg'
p23
g3
(g4
(I0
tS'b'
tRp24
(I1
(I1
tg7
I00
S'%\x01\x00\x00'
tbsS'0424042324.mpg'
p25
g3
(g4
(I0
tS'b'
tRp26
(I1
(I1
tg7
I00
S'N\x01\x00\x00'
tbsS'1020012310.mpg'
p27
g3
(g4
(I0
tS'b'
tRp28
(I1
(I0
tg16
I00
S''
tbsS'0801040156.mpg'
p29
g3
(g4
(I0
tS'b'
tRp30
(I1
(I1
tg7
I00
S'H\x01\x00\x00'
tbsS'0920022202.mpg'
p31
g3
(g4
(I0
tS'b'
tRp32
(I1
(I1
tg7
I00
S'q\x01\x00\x00'
tbsS'0802021601.mpg'
p33
g3
(g4
(I0
tS'b'
tRp34
(I1
(I1
tg7
I00
S'M\x01\x00\x00'
tbsS'0813052227.mpg'
p35
g3
(g4
(I0
tS'b'
tRp36
(I1
(I1
tg7
I00
S'g\x01\x00\x00'
tbsS'0504020932.mpg'
p37
g3
(g4
(I0
tS'b'
tRp38
(I1
(I1
tg7
I00
S'r\x01\x00\x00'
tbsS'0310030950.mpg'
p39
g3
(g4
(I0
tS'b'
tRp40
(I1
(I1
tg7
I00
S'Z\x01\x00\x00'
tbsS'0502021448.mpg'
p41
g3
(g4
(I0
tS'b'
tRp42
(I1
(I1
tg7
I00
S'U\x01\x00\x00'
tbsS'0602021449.mpg'
p43
g3
(g4
(I0
tS'b'
tRp44
(I1
(I1
tg7
I00
S'b\x01\x00\x00'
tbsS'0114022155.mpg'
p45
g3
(g4
(I0
tS'b'
tRp46
(I1
(I1
tg7
I00
S'K\x01\x00\x00'
tbsS'0709051010.mpg'
p47
g3
(g4
(I0
tS'b'
tRp48
(I1
(I1
tg7
I00
S'^\x01\x00\x00'
tbsS'1018031120.mpg'
p49
g3
(g4
(I0
tS'b'
tRp50
(I1
(I0
tg16
I00
S''
tbsS'0810041542.mpg'
p51
g3
(g4
(I0
tS'b'
tRp52
(I1
(I1
tg7
I00
S'J\x01\x00\x00'
tbsS'1129021101.mpg'
p53
g3
(g4
(I0
tS'b'
tRp54
(I1
(I1
tg7
I00
S'X\x01\x00\x00'
tbsS'0530041518.mpg'
p55
g3
(g4
(I0
tS'b'
tRp56
(I1
(I1
tg7
I00
S'>\x01\x00\x00'
tbsS'0627041200.mpg'
p57
g3
(g4
(I0
tS'b'
tRp58
(I1
(I1
tg7
I00
S';\x01\x00\x00'
tbsS'0722041417.mpg'
p59
g3
(g4
(I0
tS'b'
tRp60
(I1
(I1
tg7
I00
S'Y\x01\x00\x00'
tbsS'0523031843.mpg'
p61
g3
(g4
(I0
tS'b'
tRp62
(I1
(I0
tg16
I00
S''
tbsS'1010051017.mpg'
p63
g3
(g4
(I0
tS'b'
tRp64
(I1
(I1
tg7
I00
S'/\x01\x00\x00'
tbsS'1028011509.mpg'
p65
g3
(g4
(I0
tS'b'
tRp66
(I1
(I1
tg7
I00
S'c\x01\x00\x00'
tbsS'1122021957.mpg'
p67
g3
(g4
(I0
tS'b'
tRp68
(I1
(I1
tg7
I00
S'L\x01\x00\x00'
tbsS'0920010659.mpg'
p69
g3
(g4
(I0
tS'b'
tRp70
(I1
(I0
tg16
I00
S''
tbsS'0122020141.mpg'
p71
g3
(g4
(I0
tS'b'
tRp72
(I1
(I1
tg7
I00
S'a\x01\x00\x00'
tbsS'0611041322.mpg'
p73
g3
(g4
(I0
tS'b'
tRp74
(I1
(I1
tg7
I00
S'@\x01\x00\x00'
tbsS'0323031527.mpg'
p75
g3
(g4
(I0
tS'b'
tRp76
(I1
(I1
tg7
I00
S'3\x01\x00\x00'
tbsS'0509031837.mpg'
p77
g3
(g4
(I0
tS'b'
tRp78
(I1
(I1
tg7
I00
S'y\x01\x00\x00'
tbsS'0409021655.mpg'
p79
g3
(g4
(I0
tS'b'
tRp80
(I1
(I1
tg7
I00
S'\x1a\x01\x00\x00'
tbsS'0811021542.mpg'
p81
g3
(g4
(I0
tS'b'
tRp82
(I1
(I1
tg7
I00
S'O\x01\x00\x00'
tbsS'1218011738.mpg'
p83
g3
(g4
(I0
tS'b'
tRp84
(I1
(I1
tg7
I00
S'9\x01\x00\x00'
tbsS'1026021726.mpg'
p85
g3
(g4
(I0
tS'b'
tRp86
(I1
(I1
tg7
I00
S'f\x01\x00\x00'
tbsS'0803041051.mpg'
p87
g3
(g4
(I0
tS'b'
tRp88
(I1
(I1
tg7
I00
S'[\x01\x00\x00'
tbsS'0213031526.mpg'
p89
g3
(g4
(I0
tS'b'
tRp90
(I1
(I1
tg7
I00
S'h\x01\x00\x00'
tbsS'0406041505.mpg'
p91
g3
(g4
(I0
tS'b'
tRp92
(I1
(I1
tg7
I00
S'J\x01\x00\x00'
tbsS'1114011423.mpg'
p93
g3
(g4
(I0
tS'b'
tRp94
(I1
(I1
tg7
I00
S'h\x01\x00\x00'
tbsS'1005042123.mpg'
p95
g3
(g4
(I0
tS'b'
tRp96
(I1
(I1
tg7
I00
S'x\x01\x00\x00'
tbsS'0809021404.mpg'
p97
g3
(g4
(I0
tS'b'
tRp98
(I1
(I1
tg7
I00
S'_\x01\x00\x00'
tbsS'0901011904.mpg'
p99
g3
(g4
(I0
tS'b'
tRp100
(I1
(I0
tg16
I00
S''
tbsS'0122050205.mpg'
p101
g3
(g4
(I0
tS'b'
tRp102
(I1
(I1
tg7
I00
S'A\x01\x00\x00'
tbsS'1116021929.mpg'
p103
g3
(g4
(I0
tS'b'
tRp104
(I1
(I1
tg7
I00
S'}\x01\x00\x00'
tbsS'0808040307.mpg'
p105
g3
(g4
(I0
tS'b'
tRp106
(I1
(I1
tg7
I00
S'G\x01\x00\x00'
tbsS'0901020953.mpg'
p107
g3
(g4
(I0
tS'b'
tRp108
(I1
(I1
tg7
I00
S'd\x01\x00\x00'
tbsS'0909010909.mpg'
p109
g3
(g4
(I0
tS'b'
tRp110
(I1
(I1
tg7
I00
S'^\x01\x00\x00'
tbsS'1113041950.mpg'
p111
g3
(g4
(I0
tS'b'
tRp112
(I1
(I1
tg7
I00
S'B\x01\x00\x00'
tbsS'0614041412.mpg'
p113
g3
(g4
(I0
tS'b'
tRp114
(I1
(I1
tg7
I00
S'6\x01\x00\x00'
tbsS'0823041042.mpg'
p115
g3
(g4
(I0
tS'b'
tRp116
(I1
(I1
tg7
I00
S'O\x01\x00\x00'
tbsS'0729021911.mpg'
p117
g3
(g4
(I0
tS'b'
tRp118
(I1
(I1
tg7
I00
S'I\x01\x00\x00'
tbsS'0225040947.mpg'
p119
g3
(g4
(I0
tS'b'
tRp120
(I1
(I1
tg7
I00
S'g\x01\x00\x00'
tbsS'0713020752.mpg'
p121
g3
(g4
(I0
tS'b'
tRp122
(I1
(I1
tg7
I00
S'8\x01\x00\x00'
tbsS'0902011931.mpg'
p123
g3
(g4
(I0
tS'b'
tRp124
(I1
(I0
tg16
I00
S''
tbsS'1120010835.mpg'
p125
g3
(g4
(I0
tS'b'
tRp126
(I1
(I0
tg16
I00
S''
tbsS'0821051815.mpg'
p127
g3
(g4
(I0
tS'b'
tRp128
(I1
(I1
tg7
I00
S'H\x01\x00\x00'
tbsS'0815021449.mpg'
p129
g3
(g4
(I0
tS'b'
tRp130
(I1
(I1
tg7
I00
S'k\x01\x00\x00'
tbsS'0424031516.mpg'
p131
g3
(g4
(I0
tS'b'
tRp132
(I1
(I1
tg7
I00
S'?\x01\x00\x00'
tbsS'0822011958.mpg'
p133
g3
(g4
(I0
tS'b'
tRp134
(I1
(I0
tg16
I00
S''
tbsS'0117051107.mpg'
p135
g3
(g4
(I0
tS'b'
tRp136
(I1
(I1
tg7
I00
S'<\x01\x00\x00'
tbsS'0425041730.mpg'
p137
g3
(g4
(I0
tS'b'
tRp138
(I1
(I1
tg7
I00
S'V\x01\x00\x00'
tbsS'0605040404.mpg'
p139
g3
(g4
(I0
tS'b'
tRp140
(I1
(I1
tg7
I00
S'0\x01\x00\x00'
tbsS'1019011555.mpg'
p141
g3
(g4
(I0
tS'b'
tRp142
(I1
(I0
tg16
I00
S''
tbsS'1219011234.mpg'
p143
g3
(g4
(I0
tS'b'
tRp144
(I1
(I1
tg7
I00
S'T\x01\x00\x00'
tbsS'0602021207.mpg'
p145
g3
(g4
(I0
tS'b'
tRp146
(I1
(I1
tg7
I00
S'b\x01\x00\x00'
tbsS'0423041014.mpg'
p147
g3
(g4
(I0
tS'b'
tRp148
(I1
(I1
tg7
I00
S'F\x01\x00\x00'
tbsS'1111020735.mpg'
p149
g3
(g4
(I0
tS'b'
tRp150
(I1
(I1
tg7
I00
S'T\x01\x00\x00'
tbsS'0426030926.mpg'
p151
g3
(g4
(I0
tS'b'
tRp152
(I1
(I1
tg7
I00
S'p\x01\x00\x00'
tbsS'0721021324.mpg'
p153
g3
(g4
(I0
tS'b'
tRp154
(I1
(I1
tg7
I00
S'h\x01\x00\x00'
tbsS'0313041553.mpg'
p155
g3
(g4
(I0
tS'b'
tRp156
(I1
(I1
tg7
I00
S'\x19\x01\x00\x00'
tbsS'1007021814.mpg'
p157
g3
(g4
(I0
tS'b'
tRp158
(I1
(I1
tg7
I00
S'u\x01\x00\x00'
tbsS'0609021213.mpg'
p159
g3
(g4
(I0
tS'b'
tRp160
(I1
(I1
tg7
I00
S'j\x01\x00\x00'
tbsS'0328022321.mpg'
p161
g3
(g4
(I0
tS'b'
tRp162
(I1
(I1
tg7
I00
S'b\x01\x00\x00'
tbsS'0511021431.mpg'
p163
g3
(g4
(I0
tS'b'
tRp164
(I1
(I1
tg7
I00
S'T\x01\x00\x00'
tbsS'0925011717.mpg'
p165
g3
(g4
(I0
tS'b'
tRp166
(I1
(I1
tg7
I00
S'v\x01\x00\x00'
tbsS'0905021342.mpg'
p167
g3
(g4
(I0
tS'b'
tRp168
(I1
(I1
tg7
I00
S'\x19\x01\x00\x00'
tbsS'1113020958.mpg'
p169
g3
(g4
(I0
tS'b'
tRp170
(I1
(I1
tg7
I00
S'O\x01\x00\x00'
tbsS'1005022213.mpg'
p171
g3
(g4
(I0
tS'b'
tRp172
(I1
(I1
tg7
I00
S'x\x01\x00\x00'
tbsS'1112051145.mpg'
p173
g3
(g4
(I0
tS'b'
tRp174
(I1
(I1
tg7
I00
S'A\x01\x00\x00'
tbsS'1025010911.mpg'
p175
g3
(g4
(I0
tS'b'
tRp176
(I1
(I0
tg16
I00
S''
tbsS'1109020841.mpg'
p177
g3
(g4
(I0
tS'b'
tRp178
(I1
(I1
tg7
I00
S'h\x01\x00\x00'
tbsS'0206021930.mpg'
p179
g3
(g4
(I0
tS'b'
tRp180
(I1
(I1
tg7
I00
S'G\x01\x00\x00'
tbsS'0809021425.mpg'
p181
g3
(g4
(I0
tS'b'
tRp182
(I1
(I1
tg7
I00
S'l\x01\x00\x00'
tbsS'0901021155.mpg'
p183
g3
(g4
(I0
tS'b'
tRp184
(I1
(I1
tg7
I00
S'\x11\x01\x00\x00'
tbsS'1221021353.mpg'
p185
g3
(g4
(I0
tS'b'
tRp186
(I1
(I1
tg7
I00
S'B\x01\x00\x00'
tbsS'0209041940.mpg'
p187
g3
(g4
(I0
tS'b'
tRp188
(I1
(I1
tg7
I00
S's\x01\x00\x00'
tbsS'0916031726.mpg'
p189
g3
(g4
(I0
tS'b'
tRp190
(I1
(I0
tg16
I00
S''
tbsS'0816010929.mpg'
p191
g3
(g4
(I0
tS'b'
tRp192
(I1
(I0
tg16
I00
S''
tbsS'0502041726.mpg'
p193
g3
(g4
(I0
tS'b'
tRp194
(I1
(I1
tg7
I00
S'E\x01\x00\x00'
tbsS'0818011008.mpg'
p195
g3
(g4
(I0
tS'b'
tRp196
(I1
(I0
tg16
I00
S''
tbsS'1220040958.mpg'
p197
g3
(g4
(I0
tS'b'
tRp198
(I1
(I1
tg7
I00
S'H\x01\x00\x00'
tbsS'0810051533.mpg'
p199
g3
(g4
(I0
tS'b'
tRp200
(I1
(I1
tg7
I00
S'Y\x01\x00\x00'
tbsS'1121020207.mpg'
p201
g3
(g4
(I0
tS'b'
tRp202
(I1
(I1
tg7
I00
S'[\x01\x00\x00'
tbsS'1025031517.mpg'
p203
g3
(g4
(I0
tS'b'
tRp204
(I1
(I0
tg16
I00
S''
tbsS'1114011847.mpg'
p205
g3
(g4
(I0
tS'b'
tRp206
(I1
(I0
tg16
I00
S''
tbsS'0802021709.mpg'
p207
g3
(g4
(I0
tS'b'
tRp208
(I1
(I1
tg7
I00
S'y\x01\x00\x00'
tbsS'0227021815.mpg'
p209
g3
(g4
(I0
tS'b'
tRp210
(I1
(I1
tg7
I00
S'D\x01\x00\x00'
tbsS'0616041554.mpg'
p211
g3
(g4
(I0
tS'b'
tRp212
(I1
(I1
tg7
I00
S'=\x01\x00\x00'
tbsS'0319021037.mpg'
p213
g3
(g4
(I0
tS'b'
tRp214
(I1
(I1
tg7
I00
S'9\x01\x00\x00'
tbsS'0429021213.mpg'
p215
g3
(g4
(I0
tS'b'
tRp216
(I1
(I1
tg7
I00
S's\x01\x00\x00'
tbsS'1022032151.mpg'
p217
g3
(g4
(I0
tS'b'
tRp218
(I1
(I0
tg16
I00
S''
tbsS'0414021232.mpg'
p219
g3
(g4
(I0
tS'b'
tRp220
(I1
(I1
tg7
I00
S'U\x01\x00\x00'
tbsS'0921021250.mpg'
p221
g3
(g4
(I0
tS'b'
tRp222
(I1
(I1
tg7
I00
S'Y\x01\x00\x00'
tbsS'0922011050.mpg'
p223
g3
(g4
(I0
tS'b'
tRp224
(I1
(I0
tg16
I00
S''
tbsS'0725032212.mpg'
p225
g3
(g4
(I0
tS'b'
tRp226
(I1
(I1
tg7
I00
S'|\x01\x00\x00'
tbsS'1005020220.mpg'
p227
g3
(g4
(I0
tS'b'
tRp228
(I1
(I1
tg7
I00
S'f\x01\x00\x00'
tbsS'0820051550.mpg'
p229
g3
(g4
(I0
tS'b'
tRp230
(I1
(I1
tg7
I00
S'X\x01\x00\x00'
tbsS'1007011545.mpg'
p231
g3
(g4
(I0
tS'b'
tRp232
(I1
(I0
tg16
I00
S''
tbsS'0715041204.mpg'
p233
g3
(g4
(I0
tS'b'
tRp234
(I1
(I1
tg7
I00
S'O\x01\x00\x00'
tbsS'0811021325.mpg'
p235
g3
(g4
(I0
tS'b'
tRp236
(I1
(I1
tg7
I00
S'u\x01\x00\x00'
tbsS'1006011819.mpg'
p237
g3
(g4
(I0
tS'b'
tRp238
(I1
(I1
tg7
I00
S'm\x01\x00\x00'
tbsS'0208030956.mpg'
p239
g3
(g4
(I0
tS'b'
tRp240
(I1
(I1
tg7
I00
S'm\x01\x00\x00'
tbsS'0107031311.mpg'
p241
g3
(g4
(I0
tS'b'
tRp242
(I1
(I1
tg7
I00
S'Q\x01\x00\x00'
tbsS'0923041047.mpg'
p243
g3
(g4
(I0
tS'b'
tRp244
(I1
(I1
tg7
I00
S'N\x01\x00\x00'
tbsS'1004031535.mpg'
p245
g3
(g4
(I0
tS'b'
tRp246
(I1
(I0
tg16
I00
S''
tbsS'0824021425.mpg'
p247
g3
(g4
(I0
tS'b'
tRp248
(I1
(I1
tg7
I00
S'D\x01\x00\x00'
tbsS'1113041000.mpg'
p249
g3
(g4
(I0
tS'b'
tRp250
(I1
(I1
tg7
I00
S':\x01\x00\x00'
tbsS'0626041615.mpg'
p251
g3
(g4
(I0
tS'b'
tRp252
(I1
(I1
tg7
I00
S'F\x01\x00\x00'
tbsS'0705022136.mpg'
p253
g3
(g4
(I0
tS'b'
tRp254
(I1
(I1
tg7
I00
S'J\x01\x00\x00'
tbsS'0726032251.mpg'
p255
g3
(g4
(I0
tS'b'
tRp256
(I1
(I1
tg7
I00
S'r\x01\x00\x00'
tbsS'0913021218.mpg'
p257
g3
(g4
(I0
tS'b'
tRp258
(I1
(I1
tg7
I00
S'x\x01\x00\x00'
tbsS'0812021104.mpg'
p259
g3
(g4
(I0
tS'b'
tRp260
(I1
(I1
tg7
I00
S'N\x01\x00\x00'
tbsS'0619041820.mpg'
p261
g3
(g4
(I0
tS'b'
tRp262
(I1
(I1
tg7
I00
S';\x01\x00\x00'
tbsS'0906021131.mpg'
p263
g3
(g4
(I0
tS'b'
tRp264
(I1
(I1
tg7
I00
S'T\x01\x00\x00'
tbsS'0812051353.mpg'
p265
g3
(g4
(I0
tS'b'
tRp266
(I1
(I1
tg7
I00
S's\x01\x00\x00'
tbsS'0816041948.mpg'
p267
g3
(g4
(I0
tS'b'
tRp268
(I1
(I1
tg7
I00
S'O\x01\x00\x00'
tbsS'0112050039.mpg'
p269
g3
(g4
(I0
tS'b'
tRp270
(I1
(I1
tg7
I00
S'S\x01\x00\x00'
tbsS'0323031400.mpg'
p271
g3
(g4
(I0
tS'b'
tRp272
(I1
(I1
tg7
I00
S'\\\x01\x00\x00'
tbsS'0408031914.mpg'
p273
g3
(g4
(I0
tS'b'
tRp274
(I1
(I1
tg7
I00
S']\x01\x00\x00'
tbsS'0321052000.mpg'
p275
g3
(g4
(I0
tS'b'
tRp276
(I1
(I1
tg7
I00
S'K\x01\x00\x00'
tbsS'1114020946.mpg'
p277
g3
(g4
(I0
tS'b'
tRp278
(I1
(I1
tg7
I00
S'N\x01\x00\x00'
tbsS'0215022012.mpg'
p279
g3
(g4
(I0
tS'b'
tRp280
(I1
(I1
tg7
I00
S'P\x01\x00\x00'
tbsS'0902041158.mpg'
p281
g3
(g4
(I0
tS'b'
tRp282
(I1
(I0
tg16
I00
S''
tbsS'1229041008.mpg'
p283
g3
(g4
(I0
tS'b'
tRp284
(I1
(I1
tg7
I00
S'E\x01\x00\x00'
tbsS'0621030803.mpg'
p285
g3
(g4
(I0
tS'b'
tRp286
(I1
(I1
tg7
I00
S'T\x01\x00\x00'
tbsS'0425032225.mpg'
p287
g3
(g4
(I0
tS'b'
tRp288
(I1
(I1
tg7
I00
S'S\x01\x00\x00'
tbsS'0928010854.mpg'
p289
g3
(g4
(I0
tS'b'
tRp290
(I1
(I1
tg7
I00
S'T\x01\x00\x00'
tbsS'0424020953.mpg'
p291
g3
(g4
(I0
tS'b'
tRp292
(I1
(I1
tg7
I00
S'O\x01\x00\x00'
tbsS'0330021100.mpg'
p293
g3
(g4
(I0
tS'b'
tRp294
(I1
(I1
tg7
I00
S'`\x01\x00\x00'
tbsS'0424031526.mpg'
p295
g3
(g4
(I0
tS'b'
tRp296
(I1
(I1
tg7
I00
S']\x01\x00\x00'
tbsS'1228011900.mpg'
p297
g3
(g4
(I0
tS'b'
tRp298
(I1
(I1
tg7
I00
S'F\x01\x00\x00'
tbsS'0323041202.mpg'
p299
g3
(g4
(I0
tS'b'
tRp300
(I1
(I1
tg7
I00
S'g\x01\x00\x00'
tbsS'0805021313.mpg'
p301
g3
(g4
(I0
tS'b'
tRp302
(I1
(I1
tg7
I00
S'p\x01\x00\x00'
tbsS'0624051752.mpg'
p303
g3
(g4
(I0
tS'b'
tRp304
(I1
(I1
tg7
I00
S'O\x01\x00\x00'
tbsS'0412042131.mpg'
p305
g3
(g4
(I0
tS'b'
tRp306
(I1
(I1
tg7
I00
S'o\x01\x00\x00'
tbsS'0607031700.mpg'
p307
g3
(g4
(I0
tS'b'
tRp308
(I1
(I0
tg16
I00
S''
tbsS'0510030855.mpg'
p309
g3
(g4
(I0
tS'b'
tRp310
(I1
(I1
tg7
I00
S'~\x01\x00\x00'
tbsS'0927021232.mpg'
p311
g3
(g4
(I0
tS'b'
tRp312
(I1
(I1
tg7
I00
S'\\\x01\x00\x00'
tbsS'0919021732.mpg'
p313
g3
(g4
(I0
tS'b'
tRp314
(I1
(I1
tg7
I00
S'\x82\x01\x00\x00'
tbsS'1020051245.mpg'
p315
g3
(g4
(I0
tS'b'
tRp316
(I1
(I1
tg7
I00
S'I\x01\x00\x00'
tbsS'0729011407.mpg'
p317
g3
(g4
(I0
tS'b'
tRp318
(I1
(I0
tg16
I00
S''
tbsS'1005011952.mpg'
p319
g3
(g4
(I0
tS'b'
tRp320
(I1
(I0
tg16
I00
S''
tbsS'0904041142.mpg'
p321
g3
(g4
(I0
tS'b'
tRp322
(I1
(I1
tg7
I00
S'>\x01\x00\x00'
tbsS'0202030646.mpg'
p323
g3
(g4
(I0
tS'b'
tRp324
(I1
(I1
tg7
I00
S'S\x01\x00\x00'
tbsS'0112051333.mpg'
p325
g3
(g4
(I0
tS'b'
tRp326
(I1
(I1
tg7
I00
S'>\x01\x00\x00'
tbsS'0524022225.mpg'
p327
g3
(g4
(I0
tS'b'
tRp328
(I1
(I1
tg7
I00
S'E\x01\x00\x00'
tbsS'1231011356.mpg'
p329
g3
(g4
(I0
tS'b'
tRp330
(I1
(I1
tg7
I00
S'\\\x01\x00\x00'
tbsS'0310021637.mpg'
p331
g3
(g4
(I0
tS'b'
tRp332
(I1
(I1
tg7
I00
S'x\x01\x00\x00'
tbsS'0912050957.mpg'
p333
g3
(g4
(I0
tS'b'
tRp334
(I1
(I1
tg7
I00
S'Z\x01\x00\x00'
tbsS'0725031344.mpg'
p335
g3
(g4
(I0
tS'b'
tRp336
(I1
(I1
tg7
I00
S'V\x01\x00\x00'
tbsS'0718040056.mpg'
p337
g3
(g4
(I0
tS'b'
tRp338
(I1
(I1
tg7
I00
S'P\x01\x00\x00'
tbsS'0519041936.mpg'
p339
g3
(g4
(I0
tS'b'
tRp340
(I1
(I1
tg7
I00
S'F\x01\x00\x00'
tbsS'0805040712.mpg'
p341
g3
(g4
(I0
tS'b'
tRp342
(I1
(I1
tg7
I00
S'N\x01\x00\x00'
tbsS'0208031859.mpg'
p343
g3
(g4
(I0
tS'b'
tRp344
(I1
(I1
tg7
I00
S'^\x01\x00\x00'
tbsS'0426031207.mpg'
p345
g3
(g4
(I0
tS'b'
tRp346
(I1
(I1
tg7
I00
S'k\x01\x00\x00'
tbsS'0518031545.mpg'
p347
g3
(g4
(I0
tS'b'
tRp348
(I1
(I0
tg16
I00
S''
tbsS'1017011323.mpg'
p349
g3
(g4
(I0
tS'b'
tRp350
(I1
(I0
tg16
I00
S''
tbsS'0719030836.mpg'
p351
g3
(g4
(I0
tS'b'
tRp352
(I1
(I1
tg7
I00
S'b\x01\x00\x00'
tbsS'0715042247.mpg'
p353
g3
(g4
(I0
tS'b'
tRp354
(I1
(I1
tg7
I00
S'C\x01\x00\x00'
tbsS'0404052336.mpg'
p355
g3
(g4
(I0
tS'b'
tRp356
(I1
(I1
tg7
I00
S'C\x01\x00\x00'
tbsS'1029011257.mpg'
p357
g3
(g4
(I0
tS'b'
tRp358
(I1
(I1
tg7
I00
S'=\x01\x00\x00'
tbsS'0531021632.mpg'
p359
g3
(g4
(I0
tS'b'
tRp360
(I1
(I1
tg7
I00
S'n\x01\x00\x00'
tbsS'0510041605.mpg'
p361
g3
(g4
(I0
tS'b'
tRp362
(I1
(I1
tg7
I00
S'D\x01\x00\x00'
tbsS'1214031458.mpg'
p363
g3
(g4
(I0
tS'b'
tRp364
(I1
(I1
tg7
I00
S'`\x01\x00\x00'
tbsS'0213032152.mpg'
p365
g3
(g4
(I0
tS'b'
tRp366
(I1
(I1
tg7
I00
S'd\x01\x00\x00'
tbsS'0708041049.mpg'
p367
g3
(g4
(I0
tS'b'
tRp368
(I1
(I1
tg7
I00
S'D\x01\x00\x00'
tbsS'0831032003.mpg'
p369
g3
(g4
(I0
tS'b'
tRp370
(I1
(I0
tg16
I00
S''
tbsS'0816040904.mpg'
p371
g3
(g4
(I0
tS'b'
tRp372
(I1
(I1
tg7
I00
S'Q\x01\x00\x00'
tbsS'0717041833.mpg'
p373
g3
(g4
(I0
tS'b'
tRp374
(I1
(I1
tg7
I00
S'>\x01\x00\x00'
tbsS'0403041654.mpg'
p375
g3
(g4
(I0
tS'b'
tRp376
(I1
(I1
tg7
I00
S'u\x01\x00\x00'
tbsS'0809031601.mpg'
p377
g3
(g4
(I0
tS'b'
tRp378
(I1
(I0
tg16
I00
S''
tbsS'1116030351.mpg'
p379
g3
(g4
(I0
tS'b'
tRp380
(I1
(I0
tg16
I00
S''
tbsS'0808021856.mpg'
p381
g3
(g4
(I0
tS'b'
tRp382
(I1
(I1
tg7
I00
S'|\x01\x00\x00'
tbsS'0731041742.mpg'
p383
g3
(g4
(I0
tS'b'
tRp384
(I1
(I1
tg7
I00
S'F\x01\x00\x00'
tbsS'0729012359.mpg'
p385
g3
(g4
(I0
tS'b'
tRp386
(I1
(I1
tg7
I00
S'g\x01\x00\x00'
tbsS'0814040119.mpg'
p387
g3
(g4
(I0
tS'b'
tRp388
(I1
(I1
tg7
I00
S'R\x01\x00\x00'
tbsS'0517051112.mpg'
p389
g3
(g4
(I0
tS'b'
tRp390
(I1
(I1
tg7
I00
S'H\x01\x00\x00'
tbsS'0114020855.mpg'
p391
g3
(g4
(I0
tS'b'
tRp392
(I1
(I1
tg7
I00
S'1\x01\x00\x00'
tbsS'0313031105.mpg'
p393
g3
(g4
(I0
tS'b'
tRp394
(I1
(I1
tg7
I00
S'H\x01\x00\x00'
tbsS'0421040846.mpg'
p395
g3
(g4
(I0
tS'b'
tRp396
(I1
(I1
tg7
I00
S'J\x01\x00\x00'
tbsS'0927031358.mpg'
p397
g3
(g4
(I0
tS'b'
tRp398
(I1
(I0
tg16
I00
S''
tbsS'0625021852.mpg'
p399
g3
(g4
(I0
tS'b'
tRp400
(I1
(I1
tg7
I00
S'j\x01\x00\x00'
tbsS'0906040417.mpg'
p401
g3
(g4
(I0
tS'b'
tRp402
(I1
(I1
tg7
I00
S'L\x01\x00\x00'
tbsS'0223021116.mpg'
p403
g3
(g4
(I0
tS'b'
tRp404
(I1
(I1
tg7
I00
S'U\x01\x00\x00'
tbsS'1102051708.mpg'
p405
g3
(g4
(I0
tS'b'
tRp406
(I1
(I1
tg7
I00
S'J\x01\x00\x00'
tbsS'0609022021.mpg'
p407
g3
(g4
(I0
tS'b'
tRp408
(I1
(I1
tg7
I00
S'9\x01\x00\x00'
tbsS'0608031941.mpg'
p409
g3
(g4
(I0
tS'b'
tRp410
(I1
(I0
tg16
I00
S''
tbsS'0928021830.mpg'
p411
g3
(g4
(I0
tS'b'
tRp412
(I1
(I1
tg7
I00
S'y\x01\x00\x00'
tbsS'0321050944.mpg'
p413
g3
(g4
(I0
tS'b'
tRp414
(I1
(I1
tg7
I00
S'L\x01\x00\x00'
tbsS'1006040109.mpg'
p415
g3
(g4
(I0
tS'b'
tRp416
(I1
(I1
tg7
I00
S'S\x01\x00\x00'
tbsS'1215011724.mpg'
p417
g3
(g4
(I0
tS'b'
tRp418
(I1
(I1
tg7
I00
S'K\x01\x00\x00'
tbsS'0617031015.mpg'
p419
g3
(g4
(I0
tS'b'
tRp420
(I1
(I1
tg7
I00
S'=\x01\x00\x00'
tbsS'0207032038.mpg'
p421
g3
(g4
(I0
tS'b'
tRp422
(I1
(I1
tg7
I00
S'Z\x01\x00\x00'
tbsS'1025031312.mpg'
p423
g3
(g4
(I0
tS'b'
tRp424
(I1
(I0
tg16
I00
S''
tbsS'0709040739.mpg'
p425
g3
(g4
(I0
tS'b'
tRp426
(I1
(I1
tg7
I00
S'R\x01\x00\x00'
tbsS'0827011657.mpg'
p427
g3
(g4
(I0
tS'b'
tRp428
(I1
(I1
tg7
I00
S'G\x01\x00\x00'
tbsS'0802011247.mpg'
p429
g3
(g4
(I0
tS'b'
tRp430
(I1
(I0
tg16
I00
S''
tbsS'0123022037.mpg'
p431
g3
(g4
(I0
tS'b'
tRp432
(I1
(I1
tg7
I00
S'Y\x01\x00\x00'
tbsS'1205011129.mpg'
p433
g3
(g4
(I0
tS'b'
tRp434
(I1
(I1
tg7
I00
S'Z\x01\x00\x00'
tbsS'1016040731.mpg'
p435
g3
(g4
(I0
tS'b'
tRp436
(I1
(I1
tg7
I00
S'\x0e\x01\x00\x00'
tbsS'0619041037.mpg'
p437
g3
(g4
(I0
tS'b'
tRp438
(I1
(I1
tg7
I00
S'=\x01\x00\x00'
tbsS'0607031119.mpg'
p439
g3
(g4
(I0
tS'b'
tRp440
(I1
(I0
tg16
I00
S''
tbsS'0228041549.mpg'
p441
g3
(g4
(I0
tS'b'
tRp442
(I1
(I1
tg7
I00
S'\x7f\x01\x00\x00'
tbsS'0817041144.mpg'
p443
g3
(g4
(I0
tS'b'
tRp444
(I1
(I1
tg7
I00
S'D\x01\x00\x00'
tbsS'0920041450.mpg'
p445
g3
(g4
(I0
tS'b'
tRp446
(I1
(I1
tg7
I00
S'W\x01\x00\x00'
tbsS'0317051231.mpg'
p447
g3
(g4
(I0
tS'b'
tRp448
(I1
(I1
tg7
I00
S'\xfa\x00\x00\x00'
tbsS'0712021810.mpg'
p449
g3
(g4
(I0
tS'b'
tRp450
(I1
(I1
tg7
I00
S'c\x01\x00\x00'
tbsS'0726011141.mpg'
p451
g3
(g4
(I0
tS'b'
tRp452
(I1
(I0
tg16
I00
S''
tbsS'0723041526.mpg'
p453
g3
(g4
(I0
tS'b'
tRp454
(I1
(I1
tg7
I00
S'C\x01\x00\x00'
tbsS'0607032216.mpg'
p455
g3
(g4
(I0
tS'b'
tRp456
(I1
(I0
tg16
I00
S''
tbsS'0928030702.mpg'
p457
g3
(g4
(I0
tS'b'
tRp458
(I1
(I0
tg16
I00
S''
tbsS'0704042154.mpg'
p459
g3
(g4
(I0
tS'b'
tRp460
(I1
(I1
tg7
I00
S'5\x01\x00\x00'
tbsS'0428031103.mpg'
p461
g3
(g4
(I0
tS'b'
tRp462
(I1
(I1
tg7
I00
S"'\x01\x00\x00"
tbsS'0707021530.mpg'
p463
g3
(g4
(I0
tS'b'
tRp464
(I1
(I1
tg7
I00
S'h\x01\x00\x00'
tbsS'0818041523.mpg'
p465
g3
(g4
(I0
tS'b'
tRp466
(I1
(I1
tg7
I00
S'O\x01\x00\x00'
tbsS'1023021316.mpg'
p467
g3
(g4
(I0
tS'b'
tRp468
(I1
(I1
tg7
I00
S'^\x01\x00\x00'
tbsS'1120051713.mpg'
p469
g3
(g4
(I0
tS'b'
tRp470
(I1
(I1
tg7
I00
S't\x01\x00\x00'
tbsS'0322041237.mpg'
p471
g3
(g4
(I0
tS'b'
tRp472
(I1
(I1
tg7
I00
S'k\x01\x00\x00'
tbsS'1018021835.mpg'
p473
g3
(g4
(I0
tS'b'
tRp474
(I1
(I1
tg7
I00
S'u\x01\x00\x00'
tbsS'0215021543.mpg'
p475
g3
(g4
(I0
tS'b'
tRp476
(I1
(I1
tg7
I00
S'E\x01\x00\x00'
tbs.